target datalayout = "e-m:e-p270:32:32-p271:32:32-p272:64:64-i64:64-i128:128-f80:128-n8:16:32:64-S128"
target triple = "x86_64-pc-linux-gnu"

%"class.base::BasicStringPiece" = type { ptr, i64 }

; Function Attrs: mustprogress nounwind uwtable
define weak_odr noundef i64 @_ZNK4base16BasicStringPieceINSt7__cxx1112basic_stringIcSt11char_traitsIcESaIcEEEE6lengthEv(ptr noundef nonnull align 8 dereferenceable(16) %0) #0 comdat align 2 {
  %2 = alloca ptr, align 8
  store ptr %0, ptr %2, align 8, !tbaa !3
  %3 = load ptr, ptr %2, align 8
  %4 = getelementptr inbounds nuw %"class.base::BasicStringPiece", ptr %3, i32 0, i32 1
  %5 = load i64, ptr %4, align 8, !tbaa !12
  ret i64 %5
}

; Function Attrs: mustprogress uwtable
define linkonce_odr noundef i64 @_ZN4base8internal6rfindTINSt7__cxx1112basic_stringIcSt11char_traitsIcESaIcEEEEEmRKNS_16BasicStringPieceIT_EENS9_10value_typeEm(ptr noundef nonnull align 8 dereferenceable(16) %0, i8 noundef signext %1, i64 noundef %2) #1 comdat {
  %4 = alloca i64, align 8
  %5 = alloca ptr, align 8
  %6 = alloca i8, align 1
  %7 = alloca i64, align 8
  %8 = alloca i64, align 8
  %9 = alloca i64, align 8
  %10 = alloca i32, align 4
  store ptr %0, ptr %5, align 8, !tbaa !3
  store i8 %1, ptr %6, align 1, !tbaa !25
  store i64 %2, ptr %7, align 8, !tbaa !19
  %11 = load ptr, ptr %5, align 8, !tbaa !3
  %12 = call noundef i64 @_ZNK4base16BasicStringPieceINSt7__cxx1112basic_stringIcSt11char_traitsIcESaIcEEEE4sizeEv(ptr noundef nonnull align 8 dereferenceable(16) %11)
  %13 = icmp eq i64 %12, 0
  br i1 %13, label %14, label %15

14:                                               ; preds = %3
  store i64 -1, ptr %4, align 8
  br label %44

15:                                               ; preds = %3
  call void @llvm.lifetime.start.p0(i64 8, ptr %8) #14
  call void @llvm.lifetime.start.p0(i64 8, ptr %9) #14
  %16 = load ptr, ptr %5, align 8, !tbaa !3
  %17 = call noundef i64 @_ZNK4base16BasicStringPieceINSt7__cxx1112basic_stringIcSt11char_traitsIcESaIcEEEE4sizeEv(ptr noundef nonnull align 8 dereferenceable(16) %16)
  %18 = sub i64 %17, 1
  store i64 %18, ptr %9, align 8, !tbaa !19
  %19 = call noundef nonnull align 8 dereferenceable(8) ptr @_ZSt3minImERKT_S2_S2_(ptr noundef nonnull align 8 dereferenceable(8) %7, ptr noundef nonnull align 8 dereferenceable(8) %9)
  %20 = load i64, ptr %19, align 8, !tbaa !19
  call void @llvm.lifetime.end.p0(i64 8, ptr %9) #14
  store i64 %20, ptr %8, align 8, !tbaa !19
  br label %21

21:                                               ; preds = %38, %15
  %22 = load ptr, ptr %5, align 8, !tbaa !3
  %23 = call noundef ptr @_ZNK4base16BasicStringPieceINSt7__cxx1112basic_stringIcSt11char_traitsIcESaIcEEEE4dataEv(ptr noundef nonnull align 8 dereferenceable(16) %22)
  %24 = load i64, ptr %8, align 8, !tbaa !19
  %25 = getelementptr inbounds nuw i8, ptr %23, i64 %24
  %26 = load i8, ptr %25, align 1, !tbaa !25
  %27 = sext i8 %26 to i32
  %28 = load i8, ptr %6, align 1, !tbaa !25
  %29 = sext i8 %28 to i32
  %30 = icmp eq i32 %27, %29
  br i1 %30, label %31, label %33

31:                                               ; preds = %21
  %32 = load i64, ptr %8, align 8, !tbaa !19
  store i64 %32, ptr %4, align 8
  store i32 1, ptr %10, align 4
  br label %41

33:                                               ; preds = %21
  %34 = load i64, ptr %8, align 8, !tbaa !19
  %35 = icmp eq i64 %34, 0
  br i1 %35, label %36, label %37

36:                                               ; preds = %33
  store i32 2, ptr %10, align 4
  br label %41

37:                                               ; preds = %33
  br label %38

38:                                               ; preds = %37
  %39 = load i64, ptr %8, align 8, !tbaa !19
  %40 = add i64 %39, -1
  store i64 %40, ptr %8, align 8, !tbaa !19
  br label %21, !llvm.loop !76

41:                                               ; preds = %36, %31
  call void @llvm.lifetime.end.p0(i64 8, ptr %8) #14
  %42 = load i32, ptr %10, align 4
  switch i32 %42, label %46 [
    i32 1, label %44
    i32 2, label %43
  ]

43:                                               ; preds = %41
  store i64 -1, ptr %4, align 8
  br label %44

44:                                               ; preds = %43, %41, %14
  %45 = load i64, ptr %4, align 8
  ret i64 %45

46:                                               ; preds = %41
  unreachable
}

; Function Attrs: inlinehint mustprogress nounwind uwtable
define linkonce_odr noundef nonnull align 8 dereferenceable(8) ptr @_ZSt3minImERKT_S2_S2_(ptr noundef nonnull align 8 dereferenceable(8) %0, ptr noundef nonnull align 8 dereferenceable(8) %1) #7 comdat {
  %3 = alloca ptr, align 8
  %4 = alloca ptr, align 8
  %5 = alloca ptr, align 8
  store ptr %0, ptr %4, align 8, !tbaa !85
  store ptr %1, ptr %5, align 8, !tbaa !85
  %6 = load ptr, ptr %5, align 8, !tbaa !85
  %7 = load i64, ptr %6, align 8, !tbaa !19
  %8 = load ptr, ptr %4, align 8, !tbaa !85
  %9 = load i64, ptr %8, align 8, !tbaa !19
  %10 = icmp ult i64 %7, %9
  br i1 %10, label %11, label %13

11:                                               ; preds = %2
  %12 = load ptr, ptr %5, align 8, !tbaa !85
  store ptr %12, ptr %3, align 8
  br label %15

13:                                               ; preds = %2
  %14 = load ptr, ptr %4, align 8, !tbaa !85
  store ptr %14, ptr %3, align 8
  br label %15

15:                                               ; preds = %13, %11
  %16 = load ptr, ptr %3, align 8
  ret ptr %16
}

; Function Attrs: inlinehint mustprogress nounwind uwtable
define internal void @_ZN4base12_GLOBAL__N_116BuildLookupTableERKNS_16BasicStringPieceINSt7__cxx1112basic_stringIcSt11char_traitsIcESaIcEEEEEPb(ptr noundef nonnull align 8 dereferenceable(16) %0, ptr noundef %1) #7 {
  %3 = alloca ptr, align 8
  %4 = alloca ptr, align 8
  %5 = alloca i64, align 8
  %6 = alloca ptr, align 8
  %7 = alloca i64, align 8
  store ptr %0, ptr %3, align 8, !tbaa !3
  store ptr %1, ptr %4, align 8, !tbaa !78
  call void @llvm.lifetime.start.p0(i64 8, ptr %5) #14
  %8 = load ptr, ptr %3, align 8, !tbaa !3
  %9 = call noundef i64 @_ZNK4base16BasicStringPieceINSt7__cxx1112basic_stringIcSt11char_traitsIcESaIcEEEE6lengthEv(ptr noundef nonnull align 8 dereferenceable(16) %8)
  store i64 %9, ptr %5, align 8, !tbaa !19
  call void @llvm.lifetime.start.p0(i64 8, ptr %6) #14
  %10 = load ptr, ptr %3, align 8, !tbaa !3
  %11 = call noundef ptr @_ZNK4base16BasicStringPieceINSt7__cxx1112basic_stringIcSt11char_traitsIcESaIcEEEE4dataEv(ptr noundef nonnull align 8 dereferenceable(16) %10)
  store ptr %11, ptr %6, align 8, !tbaa !13
  call void @llvm.lifetime.start.p0(i64 8, ptr %7) #14
  store i64 0, ptr %7, align 8, !tbaa !19
  br label %12

12:                                               ; preds = %25, %2
  %13 = load i64, ptr %7, align 8, !tbaa !19
  %14 = load i64, ptr %5, align 8, !tbaa !19
  %15 = icmp ult i64 %13, %14
  br i1 %15, label %17, label %16

16:                                               ; preds = %12
  call void @llvm.lifetime.end.p0(i64 8, ptr %7) #14
  br label %28

17:                                               ; preds = %12
  %18 = load ptr, ptr %4, align 8, !tbaa !78
  %19 = load ptr, ptr %6, align 8, !tbaa !13
  %20 = load i64, ptr %7, align 8, !tbaa !19
  %21 = getelementptr inbounds nuw i8, ptr %19, i64 %20
  %22 = load i8, ptr %21, align 1, !tbaa !25
  %23 = zext i8 %22 to i64
  %24 = getelementptr inbounds nuw i8, ptr %18, i64 %23
  store i8 1, ptr %24, align 1, !tbaa !34
  br label %25

25:                                               ; preds = %17
  %26 = load i64, ptr %7, align 8, !tbaa !19
  %27 = add i64 %26, 1
  store i64 %27, ptr %7, align 8, !tbaa !19
  br label %12, !llvm.loop !80

28:                                               ; preds = %16
  call void @llvm.lifetime.end.p0(i64 8, ptr %6) #14
  call void @llvm.lifetime.end.p0(i64 8, ptr %5) #14
  ret void
}

; Function Attrs: mustprogress uwtable
define noundef i64 @_ZN4base8internal5rfindERKNS_16BasicStringPieceINSt7__cxx1112basic_stringIcSt11char_traitsIcESaIcEEEEEcm(ptr noundef nonnull align 8 dereferenceable(16) %0, i8 noundef signext %1, i64 noundef %2) #1 {
  %4 = alloca ptr, align 8
  %5 = alloca i8, align 1
  %6 = alloca i64, align 8
  store ptr %0, ptr %4, align 8, !tbaa !3
  store i8 %1, ptr %5, align 1, !tbaa !25
  store i64 %2, ptr %6, align 8, !tbaa !19
  %7 = load ptr, ptr %4, align 8, !tbaa !3
  %8 = load i8, ptr %5, align 1, !tbaa !25
  %9 = load i64, ptr %6, align 8, !tbaa !19
  %10 = call noundef i64 @_ZN4base8internal6rfindTINSt7__cxx1112basic_stringIcSt11char_traitsIcESaIcEEEEEmRKNS_16BasicStringPieceIT_EENS9_10value_typeEm(ptr noundef nonnull align 8 dereferenceable(16) %7, i8 noundef signext %8, i64 noundef %9)
  ret i64 %10
}

; Function Attrs: mustprogress nounwind uwtable
define weak_odr noundef ptr @_ZNK4base16BasicStringPieceINSt7__cxx1112basic_stringIcSt11char_traitsIcESaIcEEEE4dataEv(ptr noundef nonnull align 8 dereferenceable(16) %0) #0 comdat align 2 {
  %2 = alloca ptr, align 8
  store ptr %0, ptr %2, align 8, !tbaa !3
  %3 = load ptr, ptr %2, align 8
  %4 = getelementptr inbounds nuw %"class.base::BasicStringPiece", ptr %3, i32 0, i32 0
  %5 = load ptr, ptr %4, align 8, !tbaa !8
  ret ptr %5
}

; Function Attrs: mustprogress nounwind uwtable
define weak_odr noundef i64 @_ZNK4base16BasicStringPieceINSt7__cxx1112basic_stringIcSt11char_traitsIcESaIcEEEE4sizeEv(ptr noundef nonnull align 8 dereferenceable(16) %0) #0 comdat align 2 {
  %2 = alloca ptr, align 8
  store ptr %0, ptr %2, align 8, !tbaa !3
  %3 = load ptr, ptr %2, align 8
  %4 = getelementptr inbounds nuw %"class.base::BasicStringPiece", ptr %3, i32 0, i32 1
  %5 = load i64, ptr %4, align 8, !tbaa !12
  ret i64 %5
}

; Function Attrs: mustprogress uwtable
define noundef i64 @_ZN4base8internal12find_last_ofERKNS_16BasicStringPieceINSt7__cxx1112basic_stringIcSt11char_traitsIcESaIcEEEEESA_m(ptr noundef nonnull align 8 dereferenceable(16) %0, ptr noundef nonnull align 8 dereferenceable(16) %1, i64 noundef %2) #1 {
  %4 = alloca i64, align 8
  %5 = alloca ptr, align 8
  %6 = alloca ptr, align 8
  %7 = alloca i64, align 8
  %8 = alloca [256 x i8], align 16
  %9 = alloca i64, align 8
  %10 = alloca i64, align 8
  %11 = alloca i32, align 4
  store ptr %0, ptr %5, align 8, !tbaa !3
  store ptr %1, ptr %6, align 8, !tbaa !3
  store i64 %2, ptr %7, align 8, !tbaa !19
  %12 = load ptr, ptr %5, align 8, !tbaa !3
  %13 = call noundef i64 @_ZNK4base16BasicStringPieceINSt7__cxx1112basic_stringIcSt11char_traitsIcESaIcEEEE4sizeEv(ptr noundef nonnull align 8 dereferenceable(16) %12)
  %14 = icmp eq i64 %13, 0
  br i1 %14, label %19, label %15

15:                                               ; preds = %3
  %16 = load ptr, ptr %6, align 8, !tbaa !3
  %17 = call noundef i64 @_ZNK4base16BasicStringPieceINSt7__cxx1112basic_stringIcSt11char_traitsIcESaIcEEEE4sizeEv(ptr noundef nonnull align 8 dereferenceable(16) %16)
  %18 = icmp eq i64 %17, 0
  br i1 %18, label %19, label %20

19:                                               ; preds = %15, %3
  store i64 -1, ptr %4, align 8
  br label %64

20:                                               ; preds = %15
  %21 = load ptr, ptr %6, align 8, !tbaa !3
  %22 = call noundef i64 @_ZNK4base16BasicStringPieceINSt7__cxx1112basic_stringIcSt11char_traitsIcESaIcEEEE4sizeEv(ptr noundef nonnull align 8 dereferenceable(16) %21)
  %23 = icmp eq i64 %22, 1
  br i1 %23, label %24, label %32

24:                                               ; preds = %20
  %25 = load ptr, ptr %5, align 8, !tbaa !3
  %26 = load ptr, ptr %6, align 8, !tbaa !3
  %27 = call noundef ptr @_ZNK4base16BasicStringPieceINSt7__cxx1112basic_stringIcSt11char_traitsIcESaIcEEEE4dataEv(ptr noundef nonnull align 8 dereferenceable(16) %26)
  %28 = getelementptr inbounds i8, ptr %27, i64 0
  %29 = load i8, ptr %28, align 1, !tbaa !25
  %30 = load i64, ptr %7, align 8, !tbaa !19
  %31 = call noundef i64 @_ZN4base8internal5rfindERKNS_16BasicStringPieceINSt7__cxx1112basic_stringIcSt11char_traitsIcESaIcEEEEEcm(ptr noundef nonnull align 8 dereferenceable(16) %25, i8 noundef signext %29, i64 noundef %30)
  store i64 %31, ptr %4, align 8
  br label %64

32:                                               ; preds = %20
  call void @llvm.lifetime.start.p0(i64 256, ptr %8) #14
  call void @llvm.memset.p0.i64(ptr align 16 %8, i8 0, i64 256, i1 false)
  %33 = load ptr, ptr %6, align 8, !tbaa !3
  %34 = getelementptr inbounds [256 x i8], ptr %8, i64 0, i64 0
  call void @_ZN4base12_GLOBAL__N_116BuildLookupTableERKNS_16BasicStringPieceINSt7__cxx1112basic_stringIcSt11char_traitsIcESaIcEEEEEPb(ptr noundef nonnull align 8 dereferenceable(16) %33, ptr noundef %34)
  call void @llvm.lifetime.start.p0(i64 8, ptr %9) #14
  call void @llvm.lifetime.start.p0(i64 8, ptr %10) #14
  %35 = load ptr, ptr %5, align 8, !tbaa !3
  %36 = call noundef i64 @_ZNK4base16BasicStringPieceINSt7__cxx1112basic_stringIcSt11char_traitsIcESaIcEEEE4sizeEv(ptr noundef nonnull align 8 dereferenceable(16) %35)
  %37 = sub i64 %36, 1
  store i64 %37, ptr %10, align 8, !tbaa !19
  %38 = call noundef nonnull align 8 dereferenceable(8) ptr @_ZSt3minImERKT_S2_S2_(ptr noundef nonnull align 8 dereferenceable(8) %7, ptr noundef nonnull align 8 dereferenceable(8) %10)
  %39 = load i64, ptr %38, align 8, !tbaa !19
  call void @llvm.lifetime.end.p0(i64 8, ptr %10) #14
  store i64 %39, ptr %9, align 8, !tbaa !19
  br label %40

40:                                               ; preds = %57, %32
  %41 = load ptr, ptr %5, align 8, !tbaa !3
  %42 = call noundef ptr @_ZNK4base16BasicStringPieceINSt7__cxx1112basic_stringIcSt11char_traitsIcESaIcEEEE4dataEv(ptr noundef nonnull align 8 dereferenceable(16) %41)
  %43 = load i64, ptr %9, align 8, !tbaa !19
  %44 = getelementptr inbounds nuw i8, ptr %42, i64 %43
  %45 = load i8, ptr %44, align 1, !tbaa !25
  %46 = zext i8 %45 to i64
  %47 = getelementptr inbounds nuw [256 x i8], ptr %8, i64 0, i64 %46
  %48 = load i8, ptr %47, align 1, !tbaa !34, !range !36, !noundef !37
  %49 = trunc i8 %48 to i1
  br i1 %49, label %50, label %52

50:                                               ; preds = %40
  %51 = load i64, ptr %9, align 8, !tbaa !19
  store i64 %51, ptr %4, align 8
  store i32 1, ptr %11, align 4
  br label %60

52:                                               ; preds = %40
  %53 = load i64, ptr %9, align 8, !tbaa !19
  %54 = icmp eq i64 %53, 0
  br i1 %54, label %55, label %56

55:                                               ; preds = %52
  store i32 2, ptr %11, align 4
  br label %60

56:                                               ; preds = %52
  br label %57

57:                                               ; preds = %56
  %58 = load i64, ptr %9, align 8, !tbaa !19
  %59 = add i64 %58, -1
  store i64 %59, ptr %9, align 8, !tbaa !19
  br label %40, !llvm.loop !41

60:                                               ; preds = %55, %50
  call void @llvm.lifetime.end.p0(i64 8, ptr %9) #14
  %61 = load i32, ptr %11, align 4
  switch i32 %61, label %63 [
    i32 2, label %62
  ]

62:                                               ; preds = %60
  store i64 -1, ptr %4, align 8
  store i32 1, ptr %11, align 4
  br label %63

63:                                               ; preds = %62, %60
  call void @llvm.lifetime.end.p0(i64 256, ptr %8) #14
  br label %64

64:                                               ; preds = %63, %24, %19
  %65 = load i64, ptr %4, align 8
  ret i64 %65
}